target datalayout = "e-m:e-p270:32:32-p271:32:32-p272:64:64-i64:64-i128:128-f80:128-n8:16:32:64-S128"
target triple = "x86_64-pc-linux-gnu"

%"class.igl::opengl::glfw::Viewer" = type { i32, %"class.std::vector", i64, i32, ptr, %"class.std::vector.1", i64, i32, %"class.std::vector.6", [8 x i8], %"class.Eigen::Quaternion", i32, i32, i32, i32, float, %"class.Eigen::Matrix.13", i8, i8, float, %"class.std::function", %"class.std::function", %"class.std::function", %"class.std::function.23", %"class.std::function.23", %"class.std::function.23", %"class.std::function.25", %"class.std::function.27", %"class.std::function.23", %"class.std::function.27", %"class.std::function.27", ptr, ptr, ptr, ptr, ptr, ptr, ptr, ptr, ptr, ptr, [8 x i8] }
%"class.std::vector" = type { %"struct.std::_Vector_base" }
%"struct.std::_Vector_base" = type { %"struct.std::_Vector_base<igl::opengl::ViewerData, std::allocator<igl::opengl::ViewerData>>::_Vector_impl" }
%"struct.std::_Vector_base<igl::opengl::ViewerData, std::allocator<igl::opengl::ViewerData>>::_Vector_impl" = type { %"struct.std::_Vector_base<igl::opengl::ViewerData, std::allocator<igl::opengl::ViewerData>>::_Vector_impl_data" }
%"struct.std::_Vector_base<igl::opengl::ViewerData, std::allocator<igl::opengl::ViewerData>>::_Vector_impl_data" = type { ptr, ptr, ptr }
%"class.std::vector.1" = type { %"struct.std::_Vector_base.2" }
%"struct.std::_Vector_base.2" = type { %"struct.std::_Vector_base<igl::opengl::ViewerCore, std::allocator<igl::opengl::ViewerCore>>::_Vector_impl" }
%"struct.std::_Vector_base<igl::opengl::ViewerCore, std::allocator<igl::opengl::ViewerCore>>::_Vector_impl" = type { %"struct.std::_Vector_base<igl::opengl::ViewerCore, std::allocator<igl::opengl::ViewerCore>>::_Vector_impl_data" }
%"struct.std::_Vector_base<igl::opengl::ViewerCore, std::allocator<igl::opengl::ViewerCore>>::_Vector_impl_data" = type { ptr, ptr, ptr }
%"class.std::vector.6" = type { %"struct.std::_Vector_base.7" }
%"struct.std::_Vector_base.7" = type { %"struct.std::_Vector_base<igl::opengl::glfw::ViewerPlugin *, std::allocator<igl::opengl::glfw::ViewerPlugin *>>::_Vector_impl" }
%"struct.std::_Vector_base<igl::opengl::glfw::ViewerPlugin *, std::allocator<igl::opengl::glfw::ViewerPlugin *>>::_Vector_impl" = type { %"struct.std::_Vector_base<igl::opengl::glfw::ViewerPlugin *, std::allocator<igl::opengl::glfw::ViewerPlugin *>>::_Vector_impl_data" }
%"struct.std::_Vector_base<igl::opengl::glfw::ViewerPlugin *, std::allocator<igl::opengl::glfw::ViewerPlugin *>>::_Vector_impl_data" = type { ptr, ptr, ptr }
%"class.Eigen::Quaternion" = type { %"class.Eigen::Matrix" }
%"class.Eigen::Matrix" = type { %"class.Eigen::PlainObjectBase" }
%"class.Eigen::PlainObjectBase" = type { %"class.Eigen::DenseStorage" }
%"class.Eigen::DenseStorage" = type { %"struct.Eigen::internal::plain_array" }
%"struct.Eigen::internal::plain_array" = type { [4 x float] }
%"class.Eigen::Matrix.13" = type { %"class.Eigen::PlainObjectBase.14" }
%"class.Eigen::PlainObjectBase.14" = type { %"class.Eigen::DenseStorage.21" }
%"class.Eigen::DenseStorage.21" = type { %"struct.Eigen::internal::plain_array.22" }
%"struct.Eigen::internal::plain_array.22" = type { [3 x float] }
%"class.std::function" = type { %"class.std::_Function_base", ptr }
%"class.std::_Function_base" = type { %"union.std::_Any_data", ptr }
%"union.std::_Any_data" = type { %"union.std::_Nocopy_types" }
%"union.std::_Nocopy_types" = type { { i64, i64 } }
%"class.std::function.25" = type { %"class.std::_Function_base", ptr }
%"class.std::function.23" = type { %"class.std::_Function_base", ptr }
%"class.std::function.27" = type { %"class.std::_Function_base", ptr }

@_ZL8__viewer = internal global ptr null, align 8

; Function Attrs: mustprogress nounwind uwtable
define linkonce_odr dso_local noundef zeroext i1 @_ZNKSt14_Function_base8_M_emptyEv(ptr noundef nonnull align 8 dereferenceable(24) %0) #1 comdat align 2 {
  %2 = alloca ptr, align 8
  store ptr %0, ptr %2, align 8, !tbaa !211
  %3 = load ptr, ptr %2, align 8
  %4 = getelementptr inbounds nuw %"class.std::_Function_base", ptr %3, i32 0, i32 1
  %5 = load ptr, ptr %4, align 8, !tbaa !203
  %6 = icmp ne ptr %5, null
  %7 = xor i1 %6, true
  ret i1 %7
}

; Function Attrs: mustprogress uwtable
define linkonce_odr dso_local noundef zeroext i1 @_ZNKSt8functionIFbRN3igl6opengl4glfw6ViewerEjiEEclES4_ji(ptr noundef nonnull align 8 dereferenceable(32) %0, ptr noundef nonnull align 16 dereferenceable(616) %1, i32 noundef %2, i32 noundef %3) #3 comdat align 2 {
  %5 = alloca ptr, align 8
  %6 = alloca ptr, align 8
  %7 = alloca i32, align 4
  %8 = alloca i32, align 4
  store ptr %0, ptr %5, align 8, !tbaa !197
  store ptr %1, ptr %6, align 8, !tbaa !15
  store i32 %2, ptr %7, align 4, !tbaa !21
  store i32 %3, ptr %8, align 4, !tbaa !21
  %9 = load ptr, ptr %5, align 8
  %10 = call noundef zeroext i1 @_ZNKSt14_Function_base8_M_emptyEv(ptr noundef nonnull align 8 dereferenceable(24) %9)
  br i1 %10, label %11, label %12

11:                                               ; preds = %4
  call void @_ZSt25__throw_bad_function_callv() #29
  unreachable

12:                                               ; preds = %4
  %13 = getelementptr inbounds nuw %"class.std::function.27", ptr %9, i32 0, i32 1
  %14 = load ptr, ptr %13, align 8, !tbaa !199
  %15 = getelementptr inbounds nuw %"class.std::_Function_base", ptr %9, i32 0, i32 0
  %16 = load ptr, ptr %6, align 8, !tbaa !15
  %17 = call noundef zeroext i1 %14(ptr noundef nonnull align 8 dereferenceable(16) %15, ptr noundef nonnull align 16 dereferenceable(616) %16, ptr noundef nonnull align 4 dereferenceable(4) %7, ptr noundef nonnull align 4 dereferenceable(4) %8)
  ret i1 %17
}

; Function Attrs: mustprogress nounwind uwtable
define linkonce_odr dso_local noundef zeroext i1 @_ZNKSt8functionIFbRN3igl6opengl4glfw6ViewerEjiEEcvbEv(ptr noundef nonnull align 8 dereferenceable(32) %0) #1 comdat align 2 {
  %2 = alloca ptr, align 8
  store ptr %0, ptr %2, align 8, !tbaa !197
  %3 = load ptr, ptr %2, align 8
  %4 = call noundef zeroext i1 @_ZNKSt14_Function_base8_M_emptyEv(ptr noundef nonnull align 8 dereferenceable(24) %3)
  %5 = xor i1 %4, true
  ret i1 %5
}

; Function Attrs: mustprogress nounwind uwtable
define linkonce_odr dso_local noundef nonnull align 8 dereferenceable(8) ptr @_ZNSt6vectorIPN3igl6opengl4glfw12ViewerPluginESaIS4_EEixEm(ptr noundef nonnull align 8 dereferenceable(24) %0, i64 noundef %1) #1 comdat align 2 {
  %3 = alloca ptr, align 8
  %4 = alloca i64, align 8
  store ptr %0, ptr %3, align 8, !tbaa !165
  store i64 %1, ptr %4, align 8, !tbaa !130
  %5 = load ptr, ptr %3, align 8
  %6 = getelementptr inbounds nuw %"struct.std::_Vector_base.7", ptr %5, i32 0, i32 0
  %7 = getelementptr inbounds nuw %"struct.std::_Vector_base<igl::opengl::glfw::ViewerPlugin *, std::allocator<igl::opengl::glfw::ViewerPlugin *>>::_Vector_impl_data", ptr %6, i32 0, i32 0
  %8 = load ptr, ptr %7, align 8, !tbaa !168
  %9 = load i64, ptr %4, align 8, !tbaa !130
  %10 = getelementptr inbounds nuw ptr, ptr %8, i64 %9
  ret ptr %10
}

; Function Attrs: mustprogress nounwind uwtable
define linkonce_odr dso_local noundef i64 @_ZNKSt6vectorIPN3igl6opengl4glfw12ViewerPluginESaIS4_EE4sizeEv(ptr noundef nonnull align 8 dereferenceable(24) %0) #1 comdat align 2 {
  %2 = alloca ptr, align 8
  store ptr %0, ptr %2, align 8, !tbaa !165
  %3 = load ptr, ptr %2, align 8
  %4 = getelementptr inbounds nuw %"struct.std::_Vector_base.7", ptr %3, i32 0, i32 0
  %5 = getelementptr inbounds nuw %"struct.std::_Vector_base<igl::opengl::glfw::ViewerPlugin *, std::allocator<igl::opengl::glfw::ViewerPlugin *>>::_Vector_impl_data", ptr %4, i32 0, i32 1
  %6 = load ptr, ptr %5, align 8, !tbaa !167
  %7 = getelementptr inbounds nuw %"struct.std::_Vector_base.7", ptr %3, i32 0, i32 0
  %8 = getelementptr inbounds nuw %"struct.std::_Vector_base<igl::opengl::glfw::ViewerPlugin *, std::allocator<igl::opengl::glfw::ViewerPlugin *>>::_Vector_impl_data", ptr %7, i32 0, i32 0
  %9 = load ptr, ptr %8, align 8, !tbaa !168
  %10 = ptrtoint ptr %6 to i64
  %11 = ptrtoint ptr %9 to i64
  %12 = sub i64 %10, %11
  %13 = sdiv exact i64 %12, 8
  ret i64 %13
}

; Function Attrs: mustprogress uwtable
define dso_local noundef zeroext i1 @_ZN3igl6opengl4glfw6Viewer6key_upEii(ptr noundef nonnull align 16 dereferenceable(616) %0, i32 noundef %1, i32 noundef %2) #3 align 2 {
  %4 = alloca i1, align 1
  %5 = alloca ptr, align 8
  %6 = alloca i32, align 4
  %7 = alloca i32, align 4
  %8 = alloca i32, align 4
  %9 = alloca i32, align 4
  store ptr %0, ptr %5, align 8, !tbaa !15
  store i32 %1, ptr %6, align 4, !tbaa !21
  store i32 %2, ptr %7, align 4, !tbaa !21
  %10 = load ptr, ptr %5, align 8
  call void @llvm.lifetime.start.p0(i64 4, ptr %8) #26
  store i32 0, ptr %8, align 4, !tbaa !21
  br label %11

11:                                               ; preds = %32, %3
  %12 = load i32, ptr %8, align 4, !tbaa !21
  %13 = zext i32 %12 to i64
  %14 = getelementptr inbounds nuw %"class.igl::opengl::glfw::Viewer", ptr %10, i32 0, i32 8
  %15 = call noundef i64 @_ZNKSt6vectorIPN3igl6opengl4glfw12ViewerPluginESaIS4_EE4sizeEv(ptr noundef nonnull align 8 dereferenceable(24) %14) #26
  %16 = icmp ult i64 %13, %15
  br i1 %16, label %18, label %17

17:                                               ; preds = %11
  store i32 2, ptr %9, align 4
  br label %35

18:                                               ; preds = %11
  %19 = getelementptr inbounds nuw %"class.igl::opengl::glfw::Viewer", ptr %10, i32 0, i32 8
  %20 = load i32, ptr %8, align 4, !tbaa !21
  %21 = zext i32 %20 to i64
  %22 = call noundef nonnull align 8 dereferenceable(8) ptr @_ZNSt6vectorIPN3igl6opengl4glfw12ViewerPluginESaIS4_EEixEm(ptr noundef nonnull align 8 dereferenceable(24) %19, i64 noundef %21) #26
  %23 = load ptr, ptr %22, align 8, !tbaa !144
  %24 = load i32, ptr %6, align 4, !tbaa !21
  %25 = load i32, ptr %7, align 4, !tbaa !21
  %26 = load ptr, ptr %23, align 8, !tbaa !146
  %27 = getelementptr inbounds ptr, ptr %26, i64 18
  %28 = load ptr, ptr %27, align 8
  %29 = call noundef zeroext i1 %28(ptr noundef nonnull align 8 dereferenceable(48) %23, i32 noundef %24, i32 noundef %25)
  br i1 %29, label %30, label %31

30:                                               ; preds = %18
  store i1 true, ptr %4, align 1
  store i32 1, ptr %9, align 4
  br label %35

31:                                               ; preds = %18
  br label %32

32:                                               ; preds = %31
  %33 = load i32, ptr %8, align 4, !tbaa !21
  %34 = add i32 %33, 1
  store i32 %34, ptr %8, align 4, !tbaa !21
  br label %11, !llvm.loop !247

35:                                               ; preds = %30, %17
  call void @llvm.lifetime.end.p0(i64 4, ptr %8) #26
  %36 = load i32, ptr %9, align 4
  switch i32 %36, label %50 [
    i32 2, label %37
    i32 1, label %48
  ]

37:                                               ; preds = %35
  %38 = getelementptr inbounds nuw %"class.igl::opengl::glfw::Viewer", ptr %10, i32 0, i32 30
  %39 = call noundef zeroext i1 @_ZNKSt8functionIFbRN3igl6opengl4glfw6ViewerEjiEEcvbEv(ptr noundef nonnull align 8 dereferenceable(32) %38) #26
  br i1 %39, label %40, label %47

40:                                               ; preds = %37
  %41 = getelementptr inbounds nuw %"class.igl::opengl::glfw::Viewer", ptr %10, i32 0, i32 30
  %42 = load i32, ptr %6, align 4, !tbaa !21
  %43 = load i32, ptr %7, align 4, !tbaa !21
  %44 = call noundef zeroext i1 @_ZNKSt8functionIFbRN3igl6opengl4glfw6ViewerEjiEEclES4_ji(ptr noundef nonnull align 8 dereferenceable(32) %41, ptr noundef nonnull align 16 dereferenceable(616) %10, i32 noundef %42, i32 noundef %43)
  br i1 %44, label %45, label %46

45:                                               ; preds = %40
  store i1 true, ptr %4, align 1
  br label %48

46:                                               ; preds = %40
  br label %47

47:                                               ; preds = %46, %37
  store i1 false, ptr %4, align 1
  br label %48

48:                                               ; preds = %47, %45, %35
  %49 = load i1, ptr %4, align 1
  ret i1 %49

50:                                               ; preds = %35
  unreachable
}

; Function Attrs: mustprogress uwtable
define dso_local noundef zeroext i1 @_ZN3igl6opengl4glfw6Viewer8key_downEii(ptr noundef nonnull align 16 dereferenceable(616) %0, i32 noundef %1, i32 noundef %2) #3 align 2 {
  %4 = alloca i1, align 1
  %5 = alloca ptr, align 8
  %6 = alloca i32, align 4
  %7 = alloca i32, align 4
  %8 = alloca i32, align 4
  %9 = alloca i32, align 4
  store ptr %0, ptr %5, align 8, !tbaa !15
  store i32 %1, ptr %6, align 4, !tbaa !21
  store i32 %2, ptr %7, align 4, !tbaa !21
  %10 = load ptr, ptr %5, align 8
  call void @llvm.lifetime.start.p0(i64 4, ptr %8) #26
  store i32 0, ptr %8, align 4, !tbaa !21
  br label %11

11:                                               ; preds = %32, %3
  %12 = load i32, ptr %8, align 4, !tbaa !21
  %13 = zext i32 %12 to i64
  %14 = getelementptr inbounds nuw %"class.igl::opengl::glfw::Viewer", ptr %10, i32 0, i32 8
  %15 = call noundef i64 @_ZNKSt6vectorIPN3igl6opengl4glfw12ViewerPluginESaIS4_EE4sizeEv(ptr noundef nonnull align 8 dereferenceable(24) %14) #26
  %16 = icmp ult i64 %13, %15
  br i1 %16, label %18, label %17

17:                                               ; preds = %11
  store i32 2, ptr %9, align 4
  br label %35

18:                                               ; preds = %11
  %19 = getelementptr inbounds nuw %"class.igl::opengl::glfw::Viewer", ptr %10, i32 0, i32 8
  %20 = load i32, ptr %8, align 4, !tbaa !21
  %21 = zext i32 %20 to i64
  %22 = call noundef nonnull align 8 dereferenceable(8) ptr @_ZNSt6vectorIPN3igl6opengl4glfw12ViewerPluginESaIS4_EEixEm(ptr noundef nonnull align 8 dereferenceable(24) %19, i64 noundef %21) #26
  %23 = load ptr, ptr %22, align 8, !tbaa !144
  %24 = load i32, ptr %6, align 4, !tbaa !21
  %25 = load i32, ptr %7, align 4, !tbaa !21
  %26 = load ptr, ptr %23, align 8, !tbaa !146
  %27 = getelementptr inbounds ptr, ptr %26, i64 17
  %28 = load ptr, ptr %27, align 8
  %29 = call noundef zeroext i1 %28(ptr noundef nonnull align 8 dereferenceable(48) %23, i32 noundef %24, i32 noundef %25)
  br i1 %29, label %30, label %31

30:                                               ; preds = %18
  store i1 true, ptr %4, align 1
  store i32 1, ptr %9, align 4
  br label %35

31:                                               ; preds = %18
  br label %32

32:                                               ; preds = %31
  %33 = load i32, ptr %8, align 4, !tbaa !21
  %34 = add i32 %33, 1
  store i32 %34, ptr %8, align 4, !tbaa !21
  br label %11, !llvm.loop !246

35:                                               ; preds = %30, %17
  call void @llvm.lifetime.end.p0(i64 4, ptr %8) #26
  %36 = load i32, ptr %9, align 4
  switch i32 %36, label %50 [
    i32 2, label %37
    i32 1, label %48
  ]

37:                                               ; preds = %35
  %38 = getelementptr inbounds nuw %"class.igl::opengl::glfw::Viewer", ptr %10, i32 0, i32 29
  %39 = call noundef zeroext i1 @_ZNKSt8functionIFbRN3igl6opengl4glfw6ViewerEjiEEcvbEv(ptr noundef nonnull align 8 dereferenceable(32) %38) #26
  br i1 %39, label %40, label %47

40:                                               ; preds = %37
  %41 = getelementptr inbounds nuw %"class.igl::opengl::glfw::Viewer", ptr %10, i32 0, i32 29
  %42 = load i32, ptr %6, align 4, !tbaa !21
  %43 = load i32, ptr %7, align 4, !tbaa !21
  %44 = call noundef zeroext i1 @_ZNKSt8functionIFbRN3igl6opengl4glfw6ViewerEjiEEclES4_ji(ptr noundef nonnull align 8 dereferenceable(32) %41, ptr noundef nonnull align 16 dereferenceable(616) %10, i32 noundef %42, i32 noundef %43)
  br i1 %44, label %45, label %46

45:                                               ; preds = %40
  store i1 true, ptr %4, align 1
  br label %48

46:                                               ; preds = %40
  br label %47

47:                                               ; preds = %46, %37
  store i1 false, ptr %4, align 1
  br label %48

48:                                               ; preds = %47, %45, %35
  %49 = load i1, ptr %4, align 1
  ret i1 %49

50:                                               ; preds = %35
  unreachable
}

; Function Attrs: mustprogress uwtable
define internal void @_ZL17glfw_key_callbackP10GLFWwindowiiii(ptr noundef %0, i32 noundef %1, i32 noundef %2, i32 noundef %3, i32 noundef %4) #3 {
  %6 = alloca ptr, align 8
  %7 = alloca i32, align 4
  %8 = alloca i32, align 4
  %9 = alloca i32, align 4
  %10 = alloca i32, align 4
  store ptr %0, ptr %6, align 8, !tbaa !131
  store i32 %1, ptr %7, align 4, !tbaa !21
  store i32 %2, ptr %8, align 4, !tbaa !21
  store i32 %3, ptr %9, align 4, !tbaa !21
  store i32 %4, ptr %10, align 4, !tbaa !21
  %11 = load i32, ptr %7, align 4, !tbaa !21
  %12 = icmp eq i32 %11, 256
  br i1 %12, label %13, label %18

13:                                               ; preds = %5
  %14 = load i32, ptr %9, align 4, !tbaa !21
  %15 = icmp eq i32 %14, 1
  br i1 %15, label %16, label %18

16:                                               ; preds = %13
  %17 = load ptr, ptr %6, align 8, !tbaa !131
  call void @glfwSetWindowShouldClose(ptr noundef %17, i32 noundef 1)
  br label %18

18:                                               ; preds = %16, %13, %5
  %19 = load i32, ptr %9, align 4, !tbaa !21
  %20 = icmp eq i32 %19, 1
  br i1 %20, label %21, label %26

21:                                               ; preds = %18
  %22 = load ptr, ptr @_ZL8__viewer, align 8, !tbaa !15
  %23 = load i32, ptr %7, align 4, !tbaa !21
  %24 = load i32, ptr %10, align 4, !tbaa !21
  %25 = call noundef zeroext i1 @_ZN3igl6opengl4glfw6Viewer8key_downEii(ptr noundef nonnull align 16 dereferenceable(616) %22, i32 noundef %23, i32 noundef %24)
  br label %35

26:                                               ; preds = %18
  %27 = load i32, ptr %9, align 4, !tbaa !21
  %28 = icmp eq i32 %27, 0
  br i1 %28, label %29, label %34

29:                                               ; preds = %26
  %30 = load ptr, ptr @_ZL8__viewer, align 8, !tbaa !15
  %31 = load i32, ptr %7, align 4, !tbaa !21
  %32 = load i32, ptr %10, align 4, !tbaa !21
  %33 = call noundef zeroext i1 @_ZN3igl6opengl4glfw6Viewer6key_upEii(ptr noundef nonnull align 16 dereferenceable(616) %30, i32 noundef %31, i32 noundef %32)
  br label %34

34:                                               ; preds = %29, %26
  br label %35

35:                                               ; preds = %34, %21
  ret void
}