; Function Attrs: mustprogress uwtable
define internal void @_ZL17glfw_key_callbackP10GLFWwindowiiii(ptr noundef %0, i32 noundef %1, i32 %2, i32 noundef %3, i32 noundef %4) #0 {
  %6 = alloca i32, align 4
  %7 = alloca i32, align 4
  %8 = alloca i32, align 4
  %9 = alloca i32, align 4
  %10 = icmp eq i32 %1, 256
  %11 = icmp eq i32 %3, 1
  %or.cond = and i1 %10, %11
  br i1 %or.cond, label %.thread, label %12

.thread:                                          ; preds = %5
  tail call void @glfwSetWindowShouldClose(ptr noundef %0, i32 noundef 1)
  br label %13

12:                                               ; preds = %5
  br i1 %11, label %13, label %43

13:                                               ; preds = %.thread, %12
  %14 = load ptr, ptr @_ZL8__viewer, align 8, !tbaa !66
  %15 = getelementptr inbounds nuw i8, ptr %14, i64 96
  %16 = getelementptr inbounds nuw i8, ptr %14, i64 104
  %17 = load ptr, ptr %16, align 8, !tbaa !11
  %18 = load ptr, ptr %15, align 8, !tbaa !15
  %.not.i = icmp eq ptr %17, %18
  br i1 %.not.i, label %._crit_edge.i, label %.lr.ph.i

19:                                               ; preds = %.lr.ph.i
  %20 = add i32 %.0916.i, 1
  %21 = zext i32 %20 to i64
  %22 = load ptr, ptr %16, align 8, !tbaa !11
  %23 = load ptr, ptr %15, align 8, !tbaa !15
  %24 = ptrtoint ptr %22 to i64
  %25 = ptrtoint ptr %23 to i64
  %26 = sub i64 %24, %25
  %27 = ashr exact i64 %26, 3
  %28 = icmp ugt i64 %27, %21
  br i1 %28, label %.lr.ph.i, label %._crit_edge.i, !llvm.loop !131

.lr.ph.i:                                         ; preds = %13, %19
  %29 = phi ptr [ %23, %19 ], [ %18, %13 ]
  %30 = phi i64 [ %21, %19 ], [ 0, %13 ]
  %.0916.i = phi i32 [ %20, %19 ], [ 0, %13 ]
  %31 = getelementptr inbounds nuw ptr, ptr %29, i64 %30
  %32 = load ptr, ptr %31, align 8, !tbaa !16
  %33 = load ptr, ptr %32, align 8, !tbaa !18
  %34 = getelementptr inbounds nuw i8, ptr %33, i64 136
  %35 = load ptr, ptr %34, align 8
  %36 = tail call noundef zeroext i1 %35(ptr noundef nonnull align 8 dereferenceable(48) %32, i32 noundef %1, i32 noundef %4)
  br i1 %36, label %_ZN3igl6opengl4glfw6Viewer8key_downEii.exit, label %19

._crit_edge.i:                                    ; preds = %19, %13
  %37 = getelementptr inbounds nuw i8, ptr %14, i64 488
  %38 = load ptr, ptr %37, align 8, !tbaa !71
  %.not.i.i.not.i = icmp eq ptr %38, null
  br i1 %.not.i.i.not.i, label %_ZN3igl6opengl4glfw6Viewer8key_downEii.exit, label %_ZNKSt8functionIFbRN3igl6opengl4glfw6ViewerEjiEEclES4_ji.exit.i

_ZNKSt8functionIFbRN3igl6opengl4glfw6ViewerEjiEEclES4_ji.exit.i: ; preds = %._crit_edge.i
  %39 = getelementptr inbounds nuw i8, ptr %14, i64 472
  call void @llvm.lifetime.start.p0(i64 4, ptr nonnull %8)
  call void @llvm.lifetime.start.p0(i64 4, ptr nonnull %9)
  store i32 %1, ptr %8, align 4, !tbaa !73
  store i32 %4, ptr %9, align 4, !tbaa !73
  %40 = getelementptr inbounds nuw i8, ptr %14, i64 496
  %41 = load ptr, ptr %40, align 8, !tbaa !132
  %42 = call noundef zeroext i1 %41(ptr noundef nonnull align 8 dereferenceable(32) %39, ptr noundef nonnull align 16 dereferenceable(616) %14, ptr noundef nonnull align 4 dereferenceable(4) %8, ptr noundef nonnull align 4 dereferenceable(4) %9)
  call void @llvm.lifetime.end.p0(i64 4, ptr nonnull %8)
  call void @llvm.lifetime.end.p0(i64 4, ptr nonnull %9)
  br label %_ZN3igl6opengl4glfw6Viewer8key_downEii.exit

43:                                               ; preds = %12
  %44 = icmp eq i32 %3, 0
  br i1 %44, label %45, label %_ZN3igl6opengl4glfw6Viewer8key_downEii.exit

45:                                               ; preds = %43
  %46 = load ptr, ptr @_ZL8__viewer, align 8, !tbaa !66
  %47 = getelementptr inbounds nuw i8, ptr %46, i64 96
  %48 = getelementptr inbounds nuw i8, ptr %46, i64 104
  %49 = load ptr, ptr %48, align 8, !tbaa !11
  %50 = load ptr, ptr %47, align 8, !tbaa !15
  %.not.i9 = icmp eq ptr %49, %50
  br i1 %.not.i9, label %._crit_edge.i12, label %.lr.ph.i10

51:                                               ; preds = %.lr.ph.i10
  %52 = add i32 %.0916.i11, 1
  %53 = zext i32 %52 to i64
  %54 = load ptr, ptr %48, align 8, !tbaa !11
  %55 = load ptr, ptr %47, align 8, !tbaa !15
  %56 = ptrtoint ptr %54 to i64
  %57 = ptrtoint ptr %55 to i64
  %58 = sub i64 %56, %57
  %59 = ashr exact i64 %58, 3
  %60 = icmp ugt i64 %59, %53
  br i1 %60, label %.lr.ph.i10, label %._crit_edge.i12, !llvm.loop !133

.lr.ph.i10:                                       ; preds = %45, %51
  %61 = phi ptr [ %55, %51 ], [ %50, %45 ]
  %62 = phi i64 [ %53, %51 ], [ 0, %45 ]
  %.0916.i11 = phi i32 [ %52, %51 ], [ 0, %45 ]
  %63 = getelementptr inbounds nuw ptr, ptr %61, i64 %62
  %64 = load ptr, ptr %63, align 8, !tbaa !16
  %65 = load ptr, ptr %64, align 8, !tbaa !18
  %66 = getelementptr inbounds nuw i8, ptr %65, i64 144
  %67 = load ptr, ptr %66, align 8
  %68 = tail call noundef zeroext i1 %67(ptr noundef nonnull align 8 dereferenceable(48) %64, i32 noundef %1, i32 noundef %4)
  br i1 %68, label %_ZN3igl6opengl4glfw6Viewer8key_downEii.exit, label %51

._crit_edge.i12:                                  ; preds = %51, %45
  %69 = getelementptr inbounds nuw i8, ptr %46, i64 520
  %70 = load ptr, ptr %69, align 8, !tbaa !71
  %.not.i.i.not.i13 = icmp eq ptr %70, null
  br i1 %.not.i.i.not.i13, label %_ZN3igl6opengl4glfw6Viewer8key_downEii.exit, label %_ZNKSt8functionIFbRN3igl6opengl4glfw6ViewerEjiEEclES4_ji.exit.i14

_ZNKSt8functionIFbRN3igl6opengl4glfw6ViewerEjiEEclES4_ji.exit.i14: ; preds = %._crit_edge.i12
  %71 = getelementptr inbounds nuw i8, ptr %46, i64 504
  call void @llvm.lifetime.start.p0(i64 4, ptr nonnull %6)
  call void @llvm.lifetime.start.p0(i64 4, ptr nonnull %7)
  store i32 %1, ptr %6, align 4, !tbaa !73
  store i32 %4, ptr %7, align 4, !tbaa !73
  %72 = getelementptr inbounds nuw i8, ptr %46, i64 528
  %73 = load ptr, ptr %72, align 8, !tbaa !132
  %74 = call noundef zeroext i1 %73(ptr noundef nonnull align 8 dereferenceable(32) %71, ptr noundef nonnull align 16 dereferenceable(616) %46, ptr noundef nonnull align 4 dereferenceable(4) %6, ptr noundef nonnull align 4 dereferenceable(4) %7)
  call void @llvm.lifetime.end.p0(i64 4, ptr nonnull %6)
  call void @llvm.lifetime.end.p0(i64 4, ptr nonnull %7)
  br label %_ZN3igl6opengl4glfw6Viewer8key_downEii.exit

_ZN3igl6opengl4glfw6Viewer8key_downEii.exit:      ; preds = %.lr.ph.i10, %.lr.ph.i, %_ZNKSt8functionIFbRN3igl6opengl4glfw6ViewerEjiEEclES4_ji.exit.i, %_ZNKSt8functionIFbRN3igl6opengl4glfw6ViewerEjiEEclES4_ji.exit.i14, %._crit_edge.i12, %._crit_edge.i, %43
  ret void
}